target datalayout = "e-m:e-p270:32:32-p271:32:32-p272:64:64-i64:64-i128:128-f80:128-n8:16:32:64-S128"
target triple = "x86_64-pc-linux-gnu"

%struct.TpelDSPContext = type { [11 x ptr], [11 x ptr] }

; Function Attrs: cold nounwind optsize uwtable
define void @ff_tpeldsp_init(ptr noundef %0) #0 {
  %2 = alloca ptr, align 8
  store ptr %0, ptr %2, align 8, !tbaa !4
  %3 = load ptr, ptr %2, align 8, !tbaa !4
  %4 = getelementptr inbounds nuw %struct.TpelDSPContext, ptr %3, i32 0, i32 0
  %5 = getelementptr inbounds [11 x ptr], ptr %4, i64 0, i64 0
  store ptr @put_tpel_pixels_mc00_c, ptr %5, align 8, !tbaa !9
  %6 = load ptr, ptr %2, align 8, !tbaa !4
  %7 = getelementptr inbounds nuw %struct.TpelDSPContext, ptr %6, i32 0, i32 0
  %8 = getelementptr inbounds [11 x ptr], ptr %7, i64 0, i64 1
  store ptr @put_tpel_pixels_mc10_c, ptr %8, align 8, !tbaa !9
  %9 = load ptr, ptr %2, align 8, !tbaa !4
  %10 = getelementptr inbounds nuw %struct.TpelDSPContext, ptr %9, i32 0, i32 0
  %11 = getelementptr inbounds [11 x ptr], ptr %10, i64 0, i64 2
  store ptr @put_tpel_pixels_mc20_c, ptr %11, align 8, !tbaa !9
  %12 = load ptr, ptr %2, align 8, !tbaa !4
  %13 = getelementptr inbounds nuw %struct.TpelDSPContext, ptr %12, i32 0, i32 0
  %14 = getelementptr inbounds [11 x ptr], ptr %13, i64 0, i64 4
  store ptr @put_tpel_pixels_mc01_c, ptr %14, align 8, !tbaa !9
  %15 = load ptr, ptr %2, align 8, !tbaa !4
  %16 = getelementptr inbounds nuw %struct.TpelDSPContext, ptr %15, i32 0, i32 0
  %17 = getelementptr inbounds [11 x ptr], ptr %16, i64 0, i64 5
  store ptr @put_tpel_pixels_mc11_c, ptr %17, align 8, !tbaa !9
  %18 = load ptr, ptr %2, align 8, !tbaa !4
  %19 = getelementptr inbounds nuw %struct.TpelDSPContext, ptr %18, i32 0, i32 0
  %20 = getelementptr inbounds [11 x ptr], ptr %19, i64 0, i64 6
  store ptr @put_tpel_pixels_mc21_c, ptr %20, align 8, !tbaa !9
  %21 = load ptr, ptr %2, align 8, !tbaa !4
  %22 = getelementptr inbounds nuw %struct.TpelDSPContext, ptr %21, i32 0, i32 0
  %23 = getelementptr inbounds [11 x ptr], ptr %22, i64 0, i64 8
  store ptr @put_tpel_pixels_mc02_c, ptr %23, align 8, !tbaa !9
  %24 = load ptr, ptr %2, align 8, !tbaa !4
  %25 = getelementptr inbounds nuw %struct.TpelDSPContext, ptr %24, i32 0, i32 0
  %26 = getelementptr inbounds [11 x ptr], ptr %25, i64 0, i64 9
  store ptr @put_tpel_pixels_mc12_c, ptr %26, align 8, !tbaa !9
  %27 = load ptr, ptr %2, align 8, !tbaa !4
  %28 = getelementptr inbounds nuw %struct.TpelDSPContext, ptr %27, i32 0, i32 0
  %29 = getelementptr inbounds [11 x ptr], ptr %28, i64 0, i64 10
  store ptr @put_tpel_pixels_mc22_c, ptr %29, align 8, !tbaa !9
  %30 = load ptr, ptr %2, align 8, !tbaa !4
  %31 = getelementptr inbounds nuw %struct.TpelDSPContext, ptr %30, i32 0, i32 1
  %32 = getelementptr inbounds [11 x ptr], ptr %31, i64 0, i64 0
  store ptr @avg_tpel_pixels_mc00_c, ptr %32, align 8, !tbaa !9
  %33 = load ptr, ptr %2, align 8, !tbaa !4
  %34 = getelementptr inbounds nuw %struct.TpelDSPContext, ptr %33, i32 0, i32 1
  %35 = getelementptr inbounds [11 x ptr], ptr %34, i64 0, i64 1
  store ptr @avg_tpel_pixels_mc10_c, ptr %35, align 8, !tbaa !9
  %36 = load ptr, ptr %2, align 8, !tbaa !4
  %37 = getelementptr inbounds nuw %struct.TpelDSPContext, ptr %36, i32 0, i32 1
  %38 = getelementptr inbounds [11 x ptr], ptr %37, i64 0, i64 2
  store ptr @avg_tpel_pixels_mc20_c, ptr %38, align 8, !tbaa !9
  %39 = load ptr, ptr %2, align 8, !tbaa !4
  %40 = getelementptr inbounds nuw %struct.TpelDSPContext, ptr %39, i32 0, i32 1
  %41 = getelementptr inbounds [11 x ptr], ptr %40, i64 0, i64 4
  store ptr @avg_tpel_pixels_mc01_c, ptr %41, align 8, !tbaa !9
  %42 = load ptr, ptr %2, align 8, !tbaa !4
  %43 = getelementptr inbounds nuw %struct.TpelDSPContext, ptr %42, i32 0, i32 1
  %44 = getelementptr inbounds [11 x ptr], ptr %43, i64 0, i64 5
  store ptr @avg_tpel_pixels_mc11_c, ptr %44, align 8, !tbaa !9
  %45 = load ptr, ptr %2, align 8, !tbaa !4
  %46 = getelementptr inbounds nuw %struct.TpelDSPContext, ptr %45, i32 0, i32 1
  %47 = getelementptr inbounds [11 x ptr], ptr %46, i64 0, i64 6
  store ptr @avg_tpel_pixels_mc21_c, ptr %47, align 8, !tbaa !9
  %48 = load ptr, ptr %2, align 8, !tbaa !4
  %49 = getelementptr inbounds nuw %struct.TpelDSPContext, ptr %48, i32 0, i32 1
  %50 = getelementptr inbounds [11 x ptr], ptr %49, i64 0, i64 8
  store ptr @avg_tpel_pixels_mc02_c, ptr %50, align 8, !tbaa !9
  %51 = load ptr, ptr %2, align 8, !tbaa !4
  %52 = getelementptr inbounds nuw %struct.TpelDSPContext, ptr %51, i32 0, i32 1
  %53 = getelementptr inbounds [11 x ptr], ptr %52, i64 0, i64 9
  store ptr @avg_tpel_pixels_mc12_c, ptr %53, align 8, !tbaa !9
  %54 = load ptr, ptr %2, align 8, !tbaa !4
  %55 = getelementptr inbounds nuw %struct.TpelDSPContext, ptr %54, i32 0, i32 1
  %56 = getelementptr inbounds [11 x ptr], ptr %55, i64 0, i64 10
  store ptr @avg_tpel_pixels_mc22_c, ptr %56, align 8, !tbaa !9
  ret void
}