; Function Attrs: cold mustprogress nofree norecurse nosync nounwind optsize willreturn memory(argmem: write) uwtable
define void @ff_tpeldsp_init(ptr noundef writeonly captures(none) initializes((0, 24), (32, 56), (64, 112), (120, 144), (152, 176)) %0) local_unnamed_addr #0 {
  store ptr @put_tpel_pixels_mc00_c, ptr %0, align 8, !tbaa !4
  %2 = getelementptr inbounds nuw i8, ptr %0, i64 8
  store ptr @put_tpel_pixels_mc10_c, ptr %2, align 8, !tbaa !4
  %3 = getelementptr inbounds nuw i8, ptr %0, i64 16
  store ptr @put_tpel_pixels_mc20_c, ptr %3, align 8, !tbaa !4
  %4 = getelementptr inbounds nuw i8, ptr %0, i64 32
  store ptr @put_tpel_pixels_mc01_c, ptr %4, align 8, !tbaa !4
  %5 = getelementptr inbounds nuw i8, ptr %0, i64 40
  store ptr @put_tpel_pixels_mc11_c, ptr %5, align 8, !tbaa !4
  %6 = getelementptr inbounds nuw i8, ptr %0, i64 48
  store ptr @put_tpel_pixels_mc21_c, ptr %6, align 8, !tbaa !4
  %7 = getelementptr inbounds nuw i8, ptr %0, i64 64
  store ptr @put_tpel_pixels_mc02_c, ptr %7, align 8, !tbaa !4
  %8 = getelementptr inbounds nuw i8, ptr %0, i64 72
  store ptr @put_tpel_pixels_mc12_c, ptr %8, align 8, !tbaa !4
  %9 = getelementptr inbounds nuw i8, ptr %0, i64 80
  store ptr @put_tpel_pixels_mc22_c, ptr %9, align 8, !tbaa !4
  %10 = getelementptr inbounds nuw i8, ptr %0, i64 88
  store ptr @avg_tpel_pixels_mc00_c, ptr %10, align 8, !tbaa !4
  %11 = getelementptr inbounds nuw i8, ptr %0, i64 96
  store ptr @avg_tpel_pixels_mc10_c, ptr %11, align 8, !tbaa !4
  %12 = getelementptr inbounds nuw i8, ptr %0, i64 104
  store ptr @avg_tpel_pixels_mc20_c, ptr %12, align 8, !tbaa !4
  %13 = getelementptr inbounds nuw i8, ptr %0, i64 120
  store ptr @avg_tpel_pixels_mc01_c, ptr %13, align 8, !tbaa !4
  %14 = getelementptr inbounds nuw i8, ptr %0, i64 128
  store ptr @avg_tpel_pixels_mc11_c, ptr %14, align 8, !tbaa !4
  %15 = getelementptr inbounds nuw i8, ptr %0, i64 136
  store ptr @avg_tpel_pixels_mc21_c, ptr %15, align 8, !tbaa !4
  %16 = getelementptr inbounds nuw i8, ptr %0, i64 152
  store ptr @avg_tpel_pixels_mc02_c, ptr %16, align 8, !tbaa !4
  %17 = getelementptr inbounds nuw i8, ptr %0, i64 160
  store ptr @avg_tpel_pixels_mc12_c, ptr %17, align 8, !tbaa !4
  %18 = getelementptr inbounds nuw i8, ptr %0, i64 168
  store ptr @avg_tpel_pixels_mc22_c, ptr %18, align 8, !tbaa !4
  ret void
}